(dp1
S'letterDur'
p2
F0.20000000000000001
sS'letterSize'
p3
F0.84999999999999998
sS'nrBlocks'
p4
I4
sS'nrBlockCycles'
p5
I3
sS'restDur'
p6
F0
sS'RunNr'
p7
S'Empty'
p8
sS'ExpVersion'
p9
S'DEMO_PCE_MAIN_EXPERIMENT'
p10
sS'stimPosX'
p11
F8.5
sS'offsetDur'
p12
I10
sS'SessionNr'
p13
g8
sS'trialDur'
p14
F20
sS'flickFreq'
p15
F4
sS'stimSize'
p16
F4
sS'SubjectID'
p17
g8
sS'Date'
p18
S'Nov_19_2016_17:08'
p19
s.