(dp1
S'letterDur'
p2
F0.20000000000000001
sS'letterSize'
p3
F0.84999999999999998
sS'nrBlocks'
p4
I4
sS'nrBlockCycles'
p5
I3
sS'restDur'
p6
F0
sS'flickFreq'
p7
F4
sS'RunNr'
p8
S'Empty'
p9
sS'ExpVersion'
p10
S'DEMO_PCE_MAIN_EXPERIMENT'
p11
sS'stimPosX'
p12
F8.5
sS'offsetDur'
p13
I10
sS'stimSize'
p14
F4
sS'SessionNr'
p15
g9
sS'SubjectID'
p16
g9
sS'trialDur'
p17
F20
sS'Date'
p18
S'Nov_21_2016_13:29'
p19
s.